; Function Attrs: nounwind uwtable
define i32 @ssl_allow_compression(ptr noundef %0) local_unnamed_addr #0 {
  %2 = getelementptr inbounds nuw i8, ptr %0, i64 2480
  %3 = load i64, ptr %2, align 8, !tbaa !153
  %4 = and i64 %3, 131072
  %.not = icmp eq i64 %4, 0
  br i1 %.not, label %5, label %7

5:                                                ; preds = %1
  %6 = tail call i32 @ssl_security(ptr noundef nonnull %0, i32 noundef 15, i32 noundef 0, i32 noundef 0, ptr noundef null) #11
  br label %7

7:                                                ; preds = %1, %5
  %.0 = phi i32 [ %6, %5 ], [ 0, %1 ]
  ret i32 %.0
}